(dp0
S'mohank.k70@gmail.com'
p1
(dp2
S'filing_status'
p3
S'NULL'
p4
sS'GTM'
p5
S'0'
p6
sS'phone'
p7
S'NULL'
p8
sS'mid_status'
p9
S'5934178'
p10
ssS'snehal.kannojia@gmail.com'
p11
(dp12
g3
S'Trust'
p13
sg5
S'1'
p14
sg7
S'9769506086'
p15
sg9
S'5933506'
p16
ssS'ramanimadhuthaliyil@gmail.com'
p17
(dp18
g3
S'NULL'
p19
sg5
g14
sg7
S'NULL'
p20
sg9
S'5934199'
p21
ssS'rptravelsandtransporters@rediffmail.com'
p22
(dp23
g3
S'Prop'
p24
sg5
g6
sg7
S'9791456849'
p25
sg9
S'5934688'
p26
ssS'harshini2061995@gmail.com'
p27
(dp28
g3
S'NULL'
p29
sg5
g14
sg7
S'NULL'
p30
sg9
S'5934732'
p31
ssS'rpfeiffer31@gmail.com'
p32
(dp33
g3
S'NULL'
p34
sg5
g14
sg7
S'NULL'
p35
sg9
S'5932962'
p36
ssS'kulldeepkumar@gmail.com'
p37
(dp38
g3
S'Individual'
p39
sg5
g6
sg7
S'9616416399'
p40
sg9
S'5932776'
p41
ssS'brijlalyadav5222@gmail.com'
p42
(dp43
g3
S'Individual'
p44
sg5
g14
sg7
S'7897983104'
p45
sg9
S'5932675'
p46
ssS'airsaharatravels@gmail.com'
p47
(dp48
g3
S'Individual'
p49
sg5
g14
sg7
S'8006151516'
p50
sg9
S'5932574'
p51
ssS'malathijuly23@gmail.com'
p52
(dp53
g3
S'NULL'
p54
sg5
g6
sg7
S'NULL'
p55
sg9
S'5932512'
p56
ssS'akribhugita@gmail.com'
p57
(dp58
g3
S'Prop'
p59
sg5
g14
sg7
S'9677986996'
p60
sg9
S'5932580'
p61
ssS'joon.gohain@tgbl.com'
p62
(dp63
g3
S'NULL'
p64
sg5
g6
sg7
S'NULL'
p65
sg9
S'5932527'
p66
ssS'vjhvj@bhbhjhbj.com'
p67
(dp68
g3
S'NULL'
p69
sg5
g6
sg7
S'NULL'
p70
sg9
S'5932598'
p71
ssS'worldspeedshoping@gmail.com'
p72
(dp73
g3
S'NULL'
p74
sg5
g6
sg7
S'NULL'
p75
sg9
S'5934380'
p76
ssS'aklose2@rediffmail.com'
p77
(dp78
g3
S'Individual'
p79
sg5
g6
sg7
S'9999946580'
p80
sg9
S'5935255'
p81
ssS'sonacraft@gmail.com'
p82
(dp83
g3
S'LLP'
p84
sg5
g14
sg7
S'9312262753'
p85
sg9
S'5934652'
p86
ssS'daya@corporatetravelhouse.com'
p87
(dp88
g3
S'Private Limited'
p89
sg5
g6
sg7
S'9833868683'
p90
sg9
S'5934824'
p91
ssS'preetkaur@gmail.com'
p92
(dp93
g3
S'NULL'
p94
sg5
g6
sg7
S'NULL'
p95
sg9
S'5932506'
p96
ssS'nautankigoa@gmail.com'
p97
(dp98
g3
S'NULL'
p99
sg5
g14
sg7
S'NULL'
p100
sg9
S'5935390'
p101
ssS'shubhamjaiswal@outlook.in'
p102
(dp103
g3
S'NULL'
p104
sg5
g6
sg7
S'NULL'
p105
sg9
S'5932502'
p106
ssS'prasannagene1988@gmail.com'
p107
(dp108
g3
S'NULL'
p109
sg5
g6
sg7
S'NULL'
p110
sg9
S'5933935'
p111
ssS'vishwaskrishnareddy@gmail.com'
p112
(dp113
g3
S'NULL'
p114
sg5
g14
sg7
S'NULL'
p115
sg9
S'5933627'
p116
ssS'info@celebsbooking.com'
p117
(dp118
g3
S'NULL'
p119
sg5
g6
sg7
S'NULL'
p120
sg9
S'5932541'
p121
ssS'urjilpatel1998@gmail.com'
p122
(dp123
g3
S'NULL'
p124
sg5
g6
sg7
S'NULL'
p125
sg9
S'5932572'
p126
ssS'sanjeevrashivadekar@gmail.com'
p127
(dp128
g3
S'NULL'
p129
sg5
g14
sg7
S'NULL'
p130
sg9
S'5934250'
p131
ssS'Js947151@gmail.com'
p132
(dp133
g3
S'Individual'
p134
sg5
g14
sg7
S'7011744610'
p135
sg9
S'5934344'
p136
ssS'abhi150495@gmail.com'
p137
(dp138
g3
S'NULL'
p139
sg5
g14
sg7
S'NULL'
p140
sg9
S'5935166'
p141
ssS'vhgvgh@V.com'
p142
(dp143
g3
S'NULL'
p144
sg5
g6
sg7
S'NULL'
p145
sg9
S'5932478'
p146
ssS'jaya4prakash@gmail.com'
p147
(dp148
g3
S'NULL'
p149
sg5
g6
sg7
S'NULL'
p150
sg9
S'5933570'
p151
ssS'admin@riverfresh.in'
p152
(dp153
g3
S'Private Limited'
p154
sg5
g14
sg7
S'9762127330'
p155
sg9
S'5934096'
p156
ssS'asrafulhaquemondal@gmail.com'
p157
(dp158
g3
S'NULL'
p159
sg5
g14
sg7
S'NULL'
p160
sg9
S'5933179'
p161
ssS'shweta2929@rediffmail.com'
p162
(dp163
g3
S'NULL'
p164
sg5
g6
sg7
S'NULL'
p165
sg9
S'5932571'
p166
ssS'tcsservices@consultant.com'
p167
(dp168
g3
S'NULL'
p169
sg5
g6
sg7
S'NULL'
p170
sg9
S'5933994'
p171
ssS'mdsadamhussain0786@patu.in'
p172
(dp173
g3
S'S'
p174
sg5
g14
sg7
S'7250153104'
p175
sg9
S'5932581'
p176
ssS'tannmoy.nath270@gmail.com'
p177
(dp178
g3
S'NULL'
p179
sg5
g6
sg7
S'NULL'
p180
sg9
S'5934226'
p181
ssS'devwonder123@gmail.com'
p182
(dp183
g3
S'NULL'
p184
sg5
g14
sg7
S'NULL'
p185
sg9
S'5934127'
p186
ssS'gopiraj99599@gmail.com'
p187
(dp188
g3
S'NULL'
p189
sg5
g14
sg7
S'NULL'
p190
sg9
S'5934527'
p191
ssS'pandeyvinay1989@gmail.com'
p192
(dp193
g3
S'Individual'
p194
sg5
g6
sg7
S'8853575190'
p195
sg9
S'5933374'
p196
ssS'haploosprintinghouse@yahoo.com'
p197
(dp198
g3
S'NULL'
p199
sg5
g6
sg7
S'NULL'
p200
sg9
S'5932540'
p201
ssS'trip2vacations@gmail.com'
p202
(dp203
g3
S'Prop'
p204
sg5
g14
sg7
S'7550641523'
p205
sg9
S'5932594'
p206
ssS'sandipaniacademyblr@gmail.com'
p207
(dp208
g3
S'Private Limited'
p209
sg5
g6
sg7
S'9980129808'
p210
sg9
S'5932530'
p211
ssS'abhinavek@gmail.com'
p212
(dp213
g3
S'NULL'
p214
sg5
g6
sg7
S'NULL'
p215
sg9
S'5932485'
p216
ssS'shantanu1008@yopmail.com'
p217
(dp218
g3
S'NULL'
p219
sg5
g14
sg7
S'NULL'
p220
sg9
S'5933108'
p221
ssS'raghavthakur14322@gmail.com'
p222
(dp223
g3
S'NULL'
p224
sg5
g6
sg7
S'NULL'
p225
sg9
S'5932516'
p226
ssS'biswa@dadpinfotech.com'
p227
(dp228
g3
S'Individual'
p229
sg5
g6
sg7
S'9482523118'
p230
sg9
S'5934412'
p231
ssS'jnnj@yopmail.com'
p232
(dp233
g3
S'Prop'
p234
sg5
g14
sg7
S'6564646464'
p235
sg9
S'5933120'
p236
ssS'nagchaxu555@gmail.com'
p237
(dp238
g3
S'NULL'
p239
sg5
g14
sg7
S'NULL'
p240
sg9
S'5933025'
p241
ssS'manisaiprasadam@gmail.com'
p242
(dp243
g3
S'Individual'
p244
sg5
g6
sg7
S'8179879100'
p245
sg9
S'5935144'
p246
ssS'jha.icfai1991@gmail.com'
p247
(dp248
g3
S'Prop'
p249
sg5
g14
sg7
S'9911353645'
p250
sg9
S'5934560'
p251
ssS'rattanbouncer@gmail.com'
p252
(dp253
g3
S'Individual'
p254
sg5
g14
sg7
S'9899879682'
p255
sg9
S'5932477'
p256
ssS'juliet_sehar@yahoo.com'
p257
(dp258
g3
S'NULL'
p259
sg5
g6
sg7
S'NULL'
p260
sg9
S'5933262'
p261
ssS'ticketghar17@gmail.com'
p262
(dp263
g3
S'public limited'
p264
sg5
g14
sg7
S'9867718325'
p265
sg9
S'5934045'
p266
ssS'tghose07@gmail.com'
p267
(dp268
g3
S'NULL'
p269
sg5
g6
sg7
S'NULL'
p270
sg9
S'5932613'
p271
ssS'sudheeruma19@gmail.com'
p272
(dp273
g3
S'NULL'
p274
sg5
g14
sg7
S'NULL'
p275
sg9
S'5933306'
p276
ssS'Kadarsh954@gmail.com'
p277
(dp278
g3
S'Individual'
p279
sg5
g6
sg7
S'8010670997'
p280
sg9
S'5932498'
p281
ssS'dear.nirmal.jha@gmail.com'
p282
(dp283
g3
S'NULL'
p284
sg5
g14
sg7
S'NULL'
p285
sg9
S'5933007'
p286
ssS'barundubeu001@gmail.com'
p287
(dp288
g3
S'LLP'
p289
sg5
g14
sg7
S'9333386142'
p290
sg9
S'5933430'
p291
ssS'atahzuddin@gmail.com'
p292
(dp293
g3
S'Individual'
p294
sg5
g14
sg7
S'8880045364'
p295
sg9
S'5932544'
p296
ssS'arif@ibchotels.co.in'
p297
(dp298
g3
S'LLP'
p299
sg5
g14
sg7
S'8884440627'
p300
sg9
S'5932523'
p301
ssS'chaitanyamyassets@gmail.com'
p302
(dp303
g3
S'Individual'
p304
sg5
g6
sg7
S'7276079333'
p305
sg9
S'5932548'
p306
ssS'siri.restaurent@gmail.com'
p307
(dp308
g3
S'Prop'
p309
sg5
g6
sg7
S'7396262000'
p310
sg9
S'5933247'
p311
ssS'mkumarb@ymail.com'
p312
(dp313
g3
S'NULL'
p314
sg5
g6
sg7
S'NULL'
p315
sg9
S'5933679'
p316
ssS'ruchirtil@gmail.com'
p317
(dp318
g3
S'Prop'
p319
sg5
g6
sg7
S'7786050561'
p320
sg9
S'5934470'
p321
ssS'gauravthakre11@gmail.com'
p322
(dp323
g3
S'NULL'
p324
sg5
g6
sg7
S'NULL'
p325
sg9
S'5932748'
p326
ssS'sbjack7@gmail.com'
p327
(dp328
g3
S'Prop'
p329
sg5
g14
sg7
S'7719877777'
p330
sg9
S'5932489'
p331
ssS'meshramp308@gmail.com'
p332
(dp333
g3
S'NULL'
p334
sg5
g6
sg7
S'NULL'
p335
sg9
S'5932582'
p336
ssS'mogalikoli@gmail.com'
p337
(dp338
g3
S'NULL'
p339
sg5
g14
sg7
S'NULL'
p340
sg9
S'5935345'
p341
ssS'bhatzameer00@gmail.com'
p342
(dp343
g3
S'LLP'
p344
sg5
g14
sg7
S'9697473509'
p345
sg9
S'5932514'
p346
ssS'naimasales.agencies@outlook.com'
p347
(dp348
g3
S'Individual'
p349
sg5
g14
sg7
S'8013330091'
p350
sg9
S'5934602'
p351
ssS'vasuvmpkd@gmail.com'
p352
(dp353
g3
S'NULL'
p354
sg5
g6
sg7
S'NULL'
p355
sg9
S'5932658'
p356
ssS'ajayupadhyaynfl@gmail.com'
p357
(dp358
g3
S'NULL'
p359
sg5
g6
sg7
S'NULL'
p360
sg9
S'5932503'
p361
ssS'decimal@infionic.com'
p362
(dp363
g3
S'LLP'
p364
sg5
g6
sg7
S'8099034930'
p365
sg9
S'5932629'
p366
ssS'tusharbiswas3871@gmail.com'
p367
(dp368
g3
S'Individual'
p369
sg5
g14
sg7
S'7978104445'
p370
sg9
S'5935030'
p371
ssS'aravindh86raj@gmail.com'
p372
(dp373
g3
S'Individual'
p374
sg5
g6
sg7
S'8778303071'
p375
sg9
S'5934992'
p376
ssS'testpayunow10@yopmail.com'
p377
(dp378
g3
S'Private Limited'
p379
sg5
g14
sg7
S'6234872394'
p380
sg9
S'5933107'
p381
ssS'gsrudra@yahoo.com'
p382
(dp383
g3
S'Private Limited'
p384
sg5
g6
sg7
S'9552160600'
p385
sg9
S'5934773'
p386
ssS'shailendra.kaurav77@gmail.com'
p387
(dp388
g3
S'NULL'
p389
sg5
g6
sg7
S'NULL'
p390
sg9
S'5933199'
p391
ssS'raja.goud17@gmail.com'
p392
(dp393
g3
S'NULL'
p394
sg5
g6
sg7
S'NULL'
p395
sg9
S'5932529'
p396
ssS'PANWAR.MANIL@YAHOO.COM'
p397
(dp398
g3
S'NULL'
p399
sg5
g6
sg7
S'NULL'
p400
sg9
S'5932695'
p401
ssS'neeraj123.jain@rediffmail.com'
p402
(dp403
g3
S'Individual'
p404
sg5
g6
sg7
S'8982838175'
p405
sg9
S'5932520'
p406
ssS'colifaschannel@gmail.com'
p407
(dp408
g3
S'Prop'
p409
sg5
g6
sg7
S'9586673737'
p410
sg9
S'5934966'
p411
ssS'sarafritu19@gmail.com'
p412
(dp413
g3
S'NULL'
p414
sg5
g6
sg7
S'NULL'
p415
sg9
S'5932583'
p416
ssS'click4net.in@gmail.com'
p417
(dp418
g3
S'NULL'
p419
sg5
g6
sg7
S'NULL'
p420
sg9
S'5932566'
p421
ssS'bmr.reddy09@gmail.com'
p422
(dp423
g3
S'NULL'
p424
sg5
g14
sg7
S'NULL'
p425
sg9
S'5934309'
p426
ssS'prabhaakar.m.naidu@gmail.com'
p427
(dp428
g3
S'Individual'
p429
sg5
g14
sg7
S'9665085477'
p430
sg9
S'5935118'
p431
ssS'contact@isodaddy.com'
p432
(dp433
g3
S'Individual'
p434
sg5
g14
sg7
S'8851222731'
p435
sg9
S'5933282'
p436
ssS'superstarshahrukhkhan555@gmail.com'
p437
(dp438
g3
S'Individual'
p439
sg5
g6
sg7
S'7678542477'
p440
sg9
S'5932904'
p441
ssS'elenalauren789@gmail.com'
p442
(dp443
g3
S'Education'
p444
sg5
g14
sg7
S'9246333245'
p445
sg9
S'5933654'
p446
ssS'bhbhj@B.com'
p447
(dp448
g3
S'NULL'
p449
sg5
g6
sg7
S'NULL'
p450
sg9
S'5932479'
p451
ssS'vikramsinwal@gmail.com'
p452
(dp453
g3
S'Individual'
p454
sg5
g6
sg7
S'9802953333'
p455
sg9
S'5932982'
p456
ssS'ashu014@gmail.com'
p457
(dp458
g3
S'NULL'
p459
sg5
g6
sg7
S'NULL'
p460
sg9
S'5932726'
p461
ssS'ayushkumarsingh5679@gmail.com'
p462
(dp463
g3
S'NULL'
p464
sg5
g14
sg7
S'NULL'
p465
sg9
S'5933229'
p466
ssS'kishore9100250217@gmail.com'
p467
(dp468
g3
S'NULL'
p469
sg5
g6
sg7
S'NULL'
p470
sg9
S'5932537'
p471
ssS'shekhar.c.sheth@gmail.com'
p472
(dp473
g3
S'NULL'
p474
sg5
g6
sg7
S'NULL'
p475
sg9
S'5932588'
p476
ssS'sjsandeepja@gmail.com'
p477
(dp478
g3
S'Prop'
p479
sg5
g14
sg7
S'7987845219'
p480
sg9
S'5932864'
p481
ssS'infiestatravels@gmail.com'
p482
(dp483
g3
S'Prop'
p484
sg5
g6
sg7
S'9643390451'
p485
sg9
S'5933057'
p486
ssS'gobusiss@gmail.com'
p487
(dp488
g3
S'Individual'
p489
sg5
g14
sg7
S'8010199379'
p490
sg9
S'5934862'
p491
ssS'nazeer.ahammad@ammson.com'
p492
(dp493
g3
S'LLP'
p494
sg5
g14
sg7
S'7799116655'
p495
sg9
S'5933871'
p496
ssS'arpitshah446@gmail.com'
p497
(dp498
g3
S'NULL'
p499
sg5
g6
sg7
S'NULL'
p500
sg9
S'5932891'
p501
ssS'sriramelectronicsplubing2016@gmail.com'
p502
(dp503
g3
S'NULL'
p504
sg5
g6
sg7
S'NULL'
p505
sg9
S'5932504'
p506
ssS'bhcdscdjbhj@bhj.com'
p507
(dp508
g3
S'NULL'
p509
sg5
g6
sg7
S'NULL'
p510
sg9
S'5932499'
p511
ssS'azharkhanak1137@gmail.com'
p512
(dp513
g3
S'NULL'
p514
sg5
g6
sg7
S'NULL'
p515
sg9
S'5932570'
p516
ssS'razipurnea99@gmail.com'
p517
(dp518
g3
S'NULL'
p519
sg5
g6
sg7
S'NULL'
p520
sg9
S'5932525'
p521
ssS'thisistest@mail.com'
p522
(dp523
g3
S'Individual'
p524
sg5
g14
sg7
S'6789098767'
p525
sg9
S'5932585'
p526
ssS'info@mystikalindia.com'
p527
(dp528
g3
S'NULL'
p529
sg5
g14
sg7
S'NULL'
p530
sg9
S'5933818'
p531
ssS'mohansinghcsm@gmail.com'
p532
(dp533
g3
S'NULL'
p534
sg5
g6
sg7
S'NULL'
p535
sg9
S'5933752'
p536
ssS'venkat.m89@gmail.com'
p537
(dp538
g3
S'Individual'
p539
sg5
g14
sg7
S'8125979801'
p540
sg9
S'5932837'
p541
ssS'testpayunow7@yopmail.com'
p542
(dp543
g3
S'NULL'
p544
sg5
g14
sg7
S'NULL'
p545
sg9
S'5933098'
p546
ssS'gowri.flywings@gmail.com'
p547
(dp548
g3
S'NULL'
p549
sg5
g6
sg7
S'NULL'
p550
sg9
S'5932505'
p551
ssS'gogol.bittu@gmail.com'
p552
(dp553
g3
S'NULL'
p554
sg5
g14
sg7
S'NULL'
p555
sg9
S'5933354'
p556
ssS'saksham1804@gmail.com'
p557
(dp558
g3
S'NULL'
p559
sg5
g6
sg7
S'NULL'
p560
sg9
S'5933402'
p561
ssS'elefanstore@gmail.com'
p562
(dp563
g3
S'NULL'
p564
sg5
g6
sg7
S'NULL'
p565
sg9
S'5933477'
p566
ssS'testpayunow6@yopmail.com'
p567
(dp568
g3
S'Individual'
p569
sg5
g6
sg7
S'6324897234'
p570
sg9
S'5933040'
p571
ssS'bipinchauhan7@gmail.com'
p572
(dp573
g3
S'NULL'
p574
sg5
g6
sg7
S'NULL'
p575
sg9
S'5935233'
p576
ssS'breakuppoint@gmail.com'
p577
(dp578
g3
S'NULL'
p579
sg5
g6
sg7
S'NULL'
p580
sg9
S'5935089'
p581
ssS'mdanishkhan_786@yahoo.com'
p582
(dp583
g3
S'Individual'
p584
sg5
g14
sg7
S'9621882116'
p585
sg9
S'5932546'
p586
ssS'jangidinfotek@gmail.com'
p587
(dp588
g3
S'Individual'
p589
sg5
g14
sg7
S'8976498965'
p590
sg9
S'5935312'
p591
ssS'neeladribose@gmail.com'
p592
(dp593
g3
S'NULL'
p594
sg5
g14
sg7
S'NULL'
p595
sg9
S'5934944'
p596
ssS'info@videosngo.com'
p597
(dp598
g3
S'public '
p599
sg5
g14
sg7
S'9818983939'
p600
sg9
S'5935466'
p601
ssS'akpg@ghargenie.com'
p602
(dp603
g3
S'NULL'
p604
sg5
g14
sg7
S'NULL'
p605
sg9
S'5934799'
p606
ssS'slaltu686@gmail.com'
p607
(dp608
g3
S'NULL'
p609
sg5
g14
sg7
S'NULL'
p610
sg9
S'5933912'
p611
ssS'vivek.balusupally@gmail.com'
p612
(dp613
g3
S'NULL'
p614
sg5
g6
sg7
S'NULL'
p615
sg9
S'5932481'
p616
ssS'siyonaenterprises1@gmail.com'
p617
(dp618
g3
S'Private Limited'
p619
sg5
g6
sg7
S'9990022246'
p620
sg9
S'5934149'
p621
ssS'ashishnegi@benpour.com'
p622
(dp623
g3
S'NULL'
p624
sg5
g6
sg7
S'NULL'
p625
sg9
S'5932508'
p626
ssS'salomon022@zoho.com'
p627
(dp628
g3
S'NULL'
p629
sg5
g6
sg7
S'NULL'
p630
sg9
S'5933087'
p631
ssS'neetajnerlikar@gmail.com'
p632
(dp633
g3
S'NULL'
p634
sg5
g6
sg7
S'NULL'
p635
sg9
S'5933897'
p636
ssS'miyne.web@gmail.com'
p637
(dp638
g3
S'Individual'
p639
sg5
g6
sg7
S'7983333570'
p640
sg9
S'5932945'
p641
ssS'indusbiomedisurg@gmail.com'
p642
(dp643
g3
S'Prop'
p644
sg5
g14
sg7
S'9810342954'
p645
sg9
S'5932815'
p646
ssS'support@kapsonshomoeopathy.com'
p647
(dp648
g3
S'Private Limited'
p649
sg5
g14
sg7
S'9810089235'
p650
sg9
S'5932484'
p651
ssS'coinxmarketbiz@gmail.com'
p652
(dp653
g3
S'Prop'
p654
sg5
g14
sg7
S'7721916880'
p655
sg9
S'5932918'
p656
ssS'venkatyadav7178@gmail.com'
p657
(dp658
g3
S'NULL'
p659
sg5
g6
sg7
S'NULL'
p660
sg9
S'5932494'
p661
ssS'bala020294@gmail.com'
p662
(dp663
g3
S'NULL'
p664
sg5
g14
sg7
S'NULL'
p665
sg9
S'5933844'
p666
ssS'sglotlikar@gmail.com'
p667
(dp668
g3
S'NULL'
p669
sg5
g14
sg7
S'NULL'
p670
sg9
S'5935206'
p671
ssS'kumarniteesh133@gmail.com'
p672
(dp673
g3
S'NULL'
p674
sg5
g14
sg7
S'NULL'
p675
sg9
S'5934909'
p676
ssS'namrathnani@gmail.com'
p677
(dp678
g3
S'Society'
p679
sg5
g6
sg7
S'9966766683'
p680
sg9
S'5932590'
p681
ssS'babralarahul@gmail.com'
p682
(dp683
g3
S'Individual'
p684
sg5
g6
sg7
S'9719916466'
p685
sg9
S'5933154'
p686
ssS'madnaik.dhanshree@gmail.com'
p687
(dp688
g3
S'Individual'
p689
sg5
g6
sg7
S'9404987078'
p690
sg9
S'5932511'
p691
ssS'deepakpadhiyar@payu.in'
p692
(dp693
g3
S'NULL'
p694
sg5
g6
sg7
S'NULL'
p695
sg9
S'5934016'
p696
ssS'efillifeindia@gmail.com'
p697
(dp698
g3
S'Individual'
p699
sg5
g6
sg7
S'8920485685'
p700
sg9
S'5934276'
p701
ssS'ourindcunha8@gmail.com'
p702
(dp703
g3
S'NULL'
p704
sg5
g14
sg7
S'NULL'
p705
sg9
S'5933960'
p706
ssS'srksajangaurav@gmail.com'
p707
(dp708
g3
S'NULL'
p709
sg5
g6
sg7
S'NULL'
p710
sg9
S'5932595'
p711
ssS'id.himanshu.singh@gmail.com'
p712
(dp713
g3
S'NULL'
p714
sg5
g6
sg7
S'NULL'
p715
sg9
S'5932559'
p716
ssS'ishwarr1967@gmail.com'
p717
(dp718
g3
S'Prop'
p719
sg5
g6
sg7
S'9643994045'
p720
sg9
S'5932552'
p721
ssS'satanjib.dutta@gmail.com'
p722
(dp723
g3
S'NULL'
p724
sg5
g14
sg7
S'NULL'
p725
sg9
S'5933788'
p726
ssS'ashishsaini1099@gmail.com'
p727
(dp728
g3
S'NULL'
p729
sg5
g6
sg7
S'NULL'
p730
sg9
S'5932522'
p731
ssS'greenleaffashion.kulgachia@gmail.com'
p732
(dp733
g3
S'Prop'
p734
sg5
g6
sg7
S'9874161103'
p735
sg9
S'5932558'
p736
ssS'shubhashishsarkar10@gmail.com'
p737
(dp738
g3
S'NULL'
p739
sg5
g6
sg7
S'NULL'
p740
sg9
S'5933726'
p741
ssS'zoom9@mail.com'
p742
(dp743
g3
S'NULL'
p744
sg5
g6
sg7
S'NULL'
p745
sg9
S'5935276'
p746
ssS'hgvgh@gvh.com'
p747
(dp748
g3
S'NULL'
p749
sg5
g6
sg7
S'NULL'
p750
sg9
S'5932480'
p751
ss.