(dp0
S'mohank.k70@gmail.com'
p1
(dp2
S'mid_status'
p3
S'5934178'
p4
sS'filing_staus'
p5
S'NULL'
p6
ssS'snehal.kannojia@gmail.com'
p7
(dp8
g3
S'5933506'
p9
sg5
S'Trust'
p10
ssS'ramanimadhuthaliyil@gmail.com'
p11
(dp12
g3
S'5934199'
p13
sg5
S'NULL'
p14
ssS'rptravelsandtransporters@rediffmail.com'
p15
(dp16
g3
S'5934688'
p17
sg5
S'Proprietorship'
p18
ssS'harshini2061995@gmail.com'
p19
(dp20
g3
S'5934732'
p21
sg5
S'NULL'
p22
ssS'rpfeiffer31@gmail.com'
p23
(dp24
g3
S'5932962'
p25
sg5
S'NULL'
p26
ssS'kulldeepkumar@gmail.com'
p27
(dp28
g3
S'5932776'
p29
sg5
S'Individual'
p30
ssS'brijlalyadav5222@gmail.com'
p31
(dp32
g3
S'5932675'
p33
sg5
S'Individual'
p34
ssS'airsaharatravels@gmail.com'
p35
(dp36
g3
S'5932574'
p37
sg5
S'Individual'
p38
ssS'malathijuly23@gmail.com'
p39
(dp40
g3
S'5932512'
p41
sg5
S'NULL'
p42
ssS'akribhugita@gmail.com'
p43
(dp44
g3
S'5932580'
p45
sg5
S'Proprietorship'
p46
ssS'joon.gohain@tgbl.com'
p47
(dp48
g3
S'5932527'
p49
sg5
S'NULL'
p50
ssS'vjhvj@bhbhjhbj.com'
p51
(dp52
g3
S'5932598'
p53
sg5
S'NULL'
p54
ssS'worldspeedshoping@gmail.com'
p55
(dp56
g3
S'5934380'
p57
sg5
S'NULL'
p58
ssS'aklose2@rediffmail.com'
p59
(dp60
g3
S'5935255'
p61
sg5
S'Individual'
p62
ssS'sonacraft@gmail.com'
p63
(dp64
g3
S'5934652'
p65
sg5
S'Private Limited'
p66
ssS'daya@corporatetravelhouse.com'
p67
(dp68
g3
S'5934824'
p69
sg5
S'Partnership'
p70
ssS'preetkaur@gmail.com'
p71
(dp72
g3
S'5932506'
p73
sg5
S'NULL'
p74
ssS'nautankigoa@gmail.com'
p75
(dp76
g3
S'5935390'
p77
sg5
S'NULL'
p78
ssS'shubhamjaiswal@outlook.in'
p79
(dp80
g3
S'5932502'
p81
sg5
S'NULL'
p82
ssS'prasannagene1988@gmail.com'
p83
(dp84
g3
S'5933935'
p85
sg5
S'NULL'
p86
ssS'vishwaskrishnareddy@gmail.com'
p87
(dp88
g3
S'5933627'
p89
sg5
S'NULL'
p90
ssS'info@celebsbooking.com'
p91
(dp92
g3
S'5932541'
p93
sg5
S'NULL'
p94
ssS'urjilpatel1998@gmail.com'
p95
(dp96
g3
S'5932572'
p97
sg5
S'NULL'
p98
ssS'sanjeevrashivadekar@gmail.com'
p99
(dp100
g3
S'5934250'
p101
sg5
S'NULL'
p102
ssS'Js947151@gmail.com'
p103
(dp104
g3
S'5934344'
p105
sg5
S'Individual'
p106
ssS'abhi150495@gmail.com'
p107
(dp108
g3
S'5935166'
p109
sg5
S'NULL'
p110
ssS'vhgvgh@V.com'
p111
(dp112
g3
S'5932478'
p113
sg5
S'NULL'
p114
ssS'jaya4prakash@gmail.com'
p115
(dp116
g3
S'5933570'
p117
sg5
S'NULL'
p118
ssS'admin@riverfresh.in'
p119
(dp120
g3
S'5934096'
p121
sg5
S'Partnership'
p122
ssS'asrafulhaquemondal@gmail.com'
p123
(dp124
g3
S'5933179'
p125
sg5
S'NULL'
p126
ssS'shweta2929@rediffmail.com'
p127
(dp128
g3
S'5932571'
p129
sg5
S'NULL'
p130
ssS'tcsservices@consultant.com'
p131
(dp132
g3
S'5933994'
p133
sg5
S'NULL'
p134
ssS'mdsadamhussain0786@patu.in'
p135
(dp136
g3
S'5932581'
p137
sg5
S'Public Limited'
p138
ssS'tannmoy.nath270@gmail.com'
p139
(dp140
g3
S'5934226'
p141
sg5
S'NULL'
p142
ssS'devwonder123@gmail.com'
p143
(dp144
g3
S'5934127'
p145
sg5
S'NULL'
p146
ssS'gopiraj99599@gmail.com'
p147
(dp148
g3
S'5934527'
p149
sg5
S'NULL'
p150
ssS'pandeyvinay1989@gmail.com'
p151
(dp152
g3
S'5933374'
p153
sg5
S'Individual'
p154
ssS'haploosprintinghouse@yahoo.com'
p155
(dp156
g3
S'5932540'
p157
sg5
S'NULL'
p158
ssS'trip2vacations@gmail.com'
p159
(dp160
g3
S'5932594'
p161
sg5
S'Proprietorship'
p162
ssS'sandipaniacademyblr@gmail.com'
p163
(dp164
g3
S'5932530'
p165
sg5
S'Partnership'
p166
ssS'abhinavek@gmail.com'
p167
(dp168
g3
S'5932485'
p169
sg5
S'NULL'
p170
ssS'shantanu1008@yopmail.com'
p171
(dp172
g3
S'5933108'
p173
sg5
S'NULL'
p174
ssS'raghavthakur14322@gmail.com'
p175
(dp176
g3
S'5932516'
p177
sg5
S'NULL'
p178
ssS'biswa@dadpinfotech.com'
p179
(dp180
g3
S'5934412'
p181
sg5
S'Individual'
p182
ssS'jnnj@yopmail.com'
p183
(dp184
g3
S'5933120'
p185
sg5
S'Proprietorship'
p186
ssS'nagchaxu555@gmail.com'
p187
(dp188
g3
S'5933025'
p189
sg5
S'NULL'
p190
ssS'manisaiprasadam@gmail.com'
p191
(dp192
g3
S'5935144'
p193
sg5
S'Individual'
p194
ssS'jha.icfai1991@gmail.com'
p195
(dp196
g3
S'5934560'
p197
sg5
S'Proprietorship'
p198
ssS'rattanbouncer@gmail.com'
p199
(dp200
g3
S'5932477'
p201
sg5
S'Individual'
p202
ssS'juliet_sehar@yahoo.com'
p203
(dp204
g3
S'5933262'
p205
sg5
S'NULL'
p206
ssS'ticketghar17@gmail.com'
p207
(dp208
g3
S'5934045'
p209
sg5
S'LLP'
p210
ssS'tghose07@gmail.com'
p211
(dp212
g3
S'5932613'
p213
sg5
S'NULL'
p214
ssS'sudheeruma19@gmail.com'
p215
(dp216
g3
S'5933306'
p217
sg5
S'NULL'
p218
ssS'Kadarsh954@gmail.com'
p219
(dp220
g3
S'5932498'
p221
sg5
S'Individual'
p222
ssS'dear.nirmal.jha@gmail.com'
p223
(dp224
g3
S'5933007'
p225
sg5
S'NULL'
p226
ssS'barundubeu001@gmail.com'
p227
(dp228
g3
S'5933430'
p229
sg5
S'Private Limited'
p230
ssS'atahzuddin@gmail.com'
p231
(dp232
g3
S'5932544'
p233
sg5
S'Individual'
p234
ssS'arif@ibchotels.co.in'
p235
(dp236
g3
S'5932523'
p237
sg5
S'Private Limited'
p238
ssS'chaitanyamyassets@gmail.com'
p239
(dp240
g3
S'5932548'
p241
sg5
S'Individual'
p242
ssS'siri.restaurent@gmail.com'
p243
(dp244
g3
S'5933247'
p245
sg5
S'Proprietorship'
p246
ssS'mkumarb@ymail.com'
p247
(dp248
g3
S'5933679'
p249
sg5
S'NULL'
p250
ssS'ruchirtil@gmail.com'
p251
(dp252
g3
S'5934470'
p253
sg5
S'Proprietorship'
p254
ssS'gauravthakre11@gmail.com'
p255
(dp256
g3
S'5932748'
p257
sg5
S'NULL'
p258
ssS'sbjack7@gmail.com'
p259
(dp260
g3
S'5932489'
p261
sg5
S'Proprietorship'
p262
ssS'meshramp308@gmail.com'
p263
(dp264
g3
S'5932582'
p265
sg5
S'NULL'
p266
ssS'mogalikoli@gmail.com'
p267
(dp268
g3
S'5935345'
p269
sg5
S'NULL'
p270
ssS'bhatzameer00@gmail.com'
p271
(dp272
g3
S'5932514'
p273
sg5
S'Private Limited'
p274
ssS'naimasales.agencies@outlook.com'
p275
(dp276
g3
S'5934602'
p277
sg5
S'Individual'
p278
ssS'vasuvmpkd@gmail.com'
p279
(dp280
g3
S'5932658'
p281
sg5
S'NULL'
p282
ssS'ajayupadhyaynfl@gmail.com'
p283
(dp284
g3
S'5932503'
p285
sg5
S'NULL'
p286
ssS'decimal@infionic.com'
p287
(dp288
g3
S'5932629'
p289
sg5
S'Private Limited'
p290
ssS'tusharbiswas3871@gmail.com'
p291
(dp292
g3
S'5935030'
p293
sg5
S'Individual'
p294
ssS'aravindh86raj@gmail.com'
p295
(dp296
g3
S'5934992'
p297
sg5
S'Individual'
p298
ssS'testpayunow10@yopmail.com'
p299
(dp300
g3
S'5933107'
p301
sg5
S'Partnership'
p302
ssS'gsrudra@yahoo.com'
p303
(dp304
g3
S'5934773'
p305
sg5
S'Partnership'
p306
ssS'shailendra.kaurav77@gmail.com'
p307
(dp308
g3
S'5933199'
p309
sg5
S'NULL'
p310
ssS'raja.goud17@gmail.com'
p311
(dp312
g3
S'5932529'
p313
sg5
S'NULL'
p314
ssS'PANWAR.MANIL@YAHOO.COM'
p315
(dp316
g3
S'5932695'
p317
sg5
S'NULL'
p318
ssS'neeraj123.jain@rediffmail.com'
p319
(dp320
g3
S'5932520'
p321
sg5
S'Individual'
p322
ssS'colifaschannel@gmail.com'
p323
(dp324
g3
S'5934966'
p325
sg5
S'Proprietorship'
p326
ssS'sarafritu19@gmail.com'
p327
(dp328
g3
S'5932583'
p329
sg5
S'NULL'
p330
ssS'click4net.in@gmail.com'
p331
(dp332
g3
S'5932566'
p333
sg5
S'NULL'
p334
ssS'bmr.reddy09@gmail.com'
p335
(dp336
g3
S'5934309'
p337
sg5
S'NULL'
p338
ssS'prabhaakar.m.naidu@gmail.com'
p339
(dp340
g3
S'5935118'
p341
sg5
S'Individual'
p342
ssS'contact@isodaddy.com'
p343
(dp344
g3
S'5933282'
p345
sg5
S'Individual'
p346
ssS'superstarshahrukhkhan555@gmail.com'
p347
(dp348
g3
S'5932904'
p349
sg5
S'Individual'
p350
ssS'elenalauren789@gmail.com'
p351
(dp352
g3
S'5933654'
p353
sg5
S'Public Limited'
p354
ssS'bhbhj@B.com'
p355
(dp356
g3
S'5932479'
p357
sg5
S'NULL'
p358
ssS'vikramsinwal@gmail.com'
p359
(dp360
g3
S'5932982'
p361
sg5
S'Individual'
p362
ssS'ashu014@gmail.com'
p363
(dp364
g3
S'5932726'
p365
sg5
S'NULL'
p366
ssS'ayushkumarsingh5679@gmail.com'
p367
(dp368
g3
S'5933229'
p369
sg5
S'NULL'
p370
ssS'kishore9100250217@gmail.com'
p371
(dp372
g3
S'5932537'
p373
sg5
S'NULL'
p374
ssS'shekhar.c.sheth@gmail.com'
p375
(dp376
g3
S'5932588'
p377
sg5
S'NULL'
p378
ssS'sjsandeepja@gmail.com'
p379
(dp380
g3
S'5932864'
p381
sg5
S'Proprietorship'
p382
ssS'infiestatravels@gmail.com'
p383
(dp384
g3
S'5933057'
p385
sg5
S'Proprietorship'
p386
ssS'gobusiss@gmail.com'
p387
(dp388
g3
S'5934862'
p389
sg5
S'Individual'
p390
ssS'nazeer.ahammad@ammson.com'
p391
(dp392
g3
S'5933871'
p393
sg5
S'Private Limited'
p394
ssS'arpitshah446@gmail.com'
p395
(dp396
g3
S'5932891'
p397
sg5
S'NULL'
p398
ssS'sriramelectronicsplubing2016@gmail.com'
p399
(dp400
g3
S'5932504'
p401
sg5
S'NULL'
p402
ssS'bhcdscdjbhj@bhj.com'
p403
(dp404
g3
S'5932499'
p405
sg5
S'NULL'
p406
ssS'azharkhanak1137@gmail.com'
p407
(dp408
g3
S'5932570'
p409
sg5
S'NULL'
p410
ssS'razipurnea99@gmail.com'
p411
(dp412
g3
S'5932525'
p413
sg5
S'NULL'
p414
ssS'thisistest@mail.com'
p415
(dp416
g3
S'5932585'
p417
sg5
S'Individual'
p418
ssS'info@mystikalindia.com'
p419
(dp420
g3
S'5933818'
p421
sg5
S'NULL'
p422
ssS'mohansinghcsm@gmail.com'
p423
(dp424
g3
S'5933752'
p425
sg5
S'NULL'
p426
ssS'venkat.m89@gmail.com'
p427
(dp428
g3
S'5932837'
p429
sg5
S'Individual'
p430
ssS'testpayunow7@yopmail.com'
p431
(dp432
g3
S'5933098'
p433
sg5
S'NULL'
p434
ssS'gowri.flywings@gmail.com'
p435
(dp436
g3
S'5932505'
p437
sg5
S'NULL'
p438
ssS'gogol.bittu@gmail.com'
p439
(dp440
g3
S'5933354'
p441
sg5
S'NULL'
p442
ssS'saksham1804@gmail.com'
p443
(dp444
g3
S'5933402'
p445
sg5
S'NULL'
p446
ssS'elefanstore@gmail.com'
p447
(dp448
g3
S'5933477'
p449
sg5
S'NULL'
p450
ssS'testpayunow6@yopmail.com'
p451
(dp452
g3
S'5933040'
p453
sg5
S'Individual'
p454
ssS'bipinchauhan7@gmail.com'
p455
(dp456
g3
S'5935233'
p457
sg5
S'NULL'
p458
ssS'breakuppoint@gmail.com'
p459
(dp460
g3
S'5935089'
p461
sg5
S'NULL'
p462
ssS'mdanishkhan_786@yahoo.com'
p463
(dp464
g3
S'5932546'
p465
sg5
S'Individual'
p466
ssS'jangidinfotek@gmail.com'
p467
(dp468
g3
S'5935312'
p469
sg5
S'Individual'
p470
ssS'neeladribose@gmail.com'
p471
(dp472
g3
S'5934944'
p473
sg5
S'NULL'
p474
ssS'info@videosngo.com'
p475
(dp476
g3
S'5935466'
p477
sg5
S'Individual'
p478
ssS'akpg@ghargenie.com'
p479
(dp480
g3
S'5934799'
p481
sg5
S'NULL'
p482
ssS'slaltu686@gmail.com'
p483
(dp484
g3
S'5933912'
p485
sg5
S'NULL'
p486
ssS'vivek.balusupally@gmail.com'
p487
(dp488
g3
S'5932481'
p489
sg5
S'NULL'
p490
ssS'siyonaenterprises1@gmail.com'
p491
(dp492
g3
S'5934149'
p493
sg5
S'Partnership'
p494
ssS'ashishnegi@benpour.com'
p495
(dp496
g3
S'5932508'
p497
sg5
S'NULL'
p498
ssS'salomon022@zoho.com'
p499
(dp500
g3
S'5933087'
p501
sg5
S'NULL'
p502
ssS'neetajnerlikar@gmail.com'
p503
(dp504
g3
S'5933897'
p505
sg5
S'NULL'
p506
ssS'miyne.web@gmail.com'
p507
(dp508
g3
S'5932945'
p509
sg5
S'Individual'
p510
ssS'indusbiomedisurg@gmail.com'
p511
(dp512
g3
S'5932815'
p513
sg5
S'Proprietorship'
p514
ssS'support@kapsonshomoeopathy.com'
p515
(dp516
g3
S'5932484'
p517
sg5
S'Partnership'
p518
ssS'coinxmarketbiz@gmail.com'
p519
(dp520
g3
S'5932918'
p521
sg5
S'Proprietorship'
p522
ssS'venkatyadav7178@gmail.com'
p523
(dp524
g3
S'5932494'
p525
sg5
S'NULL'
p526
ssS'bala020294@gmail.com'
p527
(dp528
g3
S'5933844'
p529
sg5
S'NULL'
p530
ssS'sglotlikar@gmail.com'
p531
(dp532
g3
S'5935206'
p533
sg5
S'NULL'
p534
ssS'kumarniteesh133@gmail.com'
p535
(dp536
g3
S'5934909'
p537
sg5
S'NULL'
p538
ssS'namrathnani@gmail.com'
p539
(dp540
g3
S'5932590'
p541
sg5
S'Societies'
p542
ssS'babralarahul@gmail.com'
p543
(dp544
g3
S'5933154'
p545
sg5
S'Individual'
p546
ssS'madnaik.dhanshree@gmail.com'
p547
(dp548
g3
S'5932511'
p549
sg5
S'Individual'
p550
ssS'deepakpadhiyar@payu.in'
p551
(dp552
g3
S'5934016'
p553
sg5
S'NULL'
p554
ssS'efillifeindia@gmail.com'
p555
(dp556
g3
S'5934276'
p557
sg5
S'Individual'
p558
ssS'ourindcunha8@gmail.com'
p559
(dp560
g3
S'5933960'
p561
sg5
S'NULL'
p562
ssS'srksajangaurav@gmail.com'
p563
(dp564
g3
S'5932595'
p565
sg5
S'NULL'
p566
ssS'id.himanshu.singh@gmail.com'
p567
(dp568
g3
S'5932559'
p569
sg5
S'NULL'
p570
ssS'ishwarr1967@gmail.com'
p571
(dp572
g3
S'5932552'
p573
sg5
S'Proprietorship'
p574
ssS'satanjib.dutta@gmail.com'
p575
(dp576
g3
S'5933788'
p577
sg5
S'NULL'
p578
ssS'ashishsaini1099@gmail.com'
p579
(dp580
g3
S'5932522'
p581
sg5
S'NULL'
p582
ssS'greenleaffashion.kulgachia@gmail.com'
p583
(dp584
g3
S'5932558'
p585
sg5
S'Proprietorship'
p586
ssS'shubhashishsarkar10@gmail.com'
p587
(dp588
g3
S'5933726'
p589
sg5
S'NULL'
p590
ssS'zoom9@mail.com'
p591
(dp592
g3
S'5935276'
p593
sg5
S'NULL'
p594
ssS'hgvgh@gvh.com'
p595
(dp596
g3
S'5932480'
p597
sg5
S'NULL'
p598
ss.